; Function Attrs: inlinehint nounwind uwtable
define internal fastcc ptr @lv_obj_get_style_bitmap_mask_src(ptr noundef readonly captures(address_is_null) %0) unnamed_addr #6 {
  %2 = alloca %union.lv_style_value_t, align 8
  %.not.i = icmp eq ptr %0, null
  br i1 %.not.i, label %.preheader.i, label %3

.preheader.i:                                     ; preds = %1, %.preheader.i
  br label %.preheader.i

3:                                                ; preds = %1
  %4 = getelementptr inbounds nuw i8, ptr %0, i64 60
  %5 = load i16, ptr %4, align 4, !tbaa !62
  %6 = zext i16 %5 to i32
  call void @llvm.lifetime.start.p0(i64 8, ptr nonnull %2) #9
  store i64 0, ptr %2, align 8
  %7 = call fastcc i32 @get_prop_core(ptr noundef nonnull readonly %0, i32 noundef %6, i8 noundef zeroext 115, ptr noundef nonnull %2)
  %.not54.i = icmp eq i32 %7, 0
  br i1 %.not54.i, label %8, label %get_selector_style_prop.exit

8:                                                ; preds = %3
  %.037.in.i = load i8, ptr getelementptr inbounds nuw (i8, ptr @lv_style_builtin_prop_flag_lookup_table, i64 115), align 1, !tbaa !37
  %9 = trunc i8 %.037.in.i to i1
  br i1 %9, label %10, label %.loopexit

10:                                               ; preds = %8
  %11 = getelementptr inbounds nuw i8, ptr %0, i64 8
  %12 = load ptr, ptr %11, align 8, !tbaa !63
  %.not5261.i = icmp eq ptr %12, null
  br i1 %.not5261.i, label %.loopexit, label %.lr.ph63.i

.lr.ph63.i:                                       ; preds = %10, %17
  %.14262.i = phi ptr [ %19, %17 ], [ %12, %10 ]
  %13 = getelementptr inbounds nuw i8, ptr %.14262.i, i64 60
  %14 = load i16, ptr %13, align 4, !tbaa !62
  %15 = zext i16 %14 to i32
  %16 = call fastcc i32 @get_prop_core(ptr noundef %.14262.i, i32 noundef %15, i8 noundef zeroext 115, ptr noundef nonnull %2)
  %.not55.i = icmp eq i32 %16, 0
  br i1 %.not55.i, label %17, label %get_selector_style_prop.exit

17:                                               ; preds = %.lr.ph63.i
  %18 = getelementptr inbounds nuw i8, ptr %.14262.i, i64 8
  %19 = load ptr, ptr %18, align 8, !tbaa !63
  %.not52.i = icmp eq ptr %19, null
  br i1 %.not52.i, label %.loopexit, label %.lr.ph63.i, !llvm.loop !64

get_selector_style_prop.exit:                     ; preds = %.lr.ph63.i, %3
  %.sroa.0.0.copyload.i = load ptr, ptr %2, align 8, !tbaa !37
  br label %lv_obj_get_style_prop.exit

.loopexit:                                        ; preds = %17, %10, %8
  %20 = tail call ptr @lv_style_prop_get_default(i8 noundef zeroext 115) #9
  br label %lv_obj_get_style_prop.exit

lv_obj_get_style_prop.exit:                       ; preds = %get_selector_style_prop.exit, %.loopexit
  %.sroa.0.0.i = phi ptr [ %.sroa.0.0.copyload.i, %get_selector_style_prop.exit ], [ %20, %.loopexit ]
  call void @llvm.lifetime.end.p0(i64 8, ptr nonnull %2) #9
  ret ptr %.sroa.0.0.i
}